target datalayout = "e-m:e-p270:32:32-p271:32:32-p272:64:64-i64:64-i128:128-f80:128-n8:16:32:64-S128"
target triple = "x86_64-pc-linux-gnu"

@stdout = external global ptr, align 8
@.str = private unnamed_addr constant [26 x i8] c"Writing BLIF has failed.\0A\00", align 1

; Function Attrs: nounwind uwtable
define void @Io_WriteBlifSpecial(ptr noundef %0, ptr noundef %1, ptr noundef %2, i32 noundef %3) #0 {
  %5 = alloca ptr, align 8
  %6 = alloca ptr, align 8
  %7 = alloca ptr, align 8
  %8 = alloca i32, align 4
  %9 = alloca ptr, align 8
  store ptr %0, ptr %5, align 8
  store ptr %1, ptr %6, align 8
  store ptr %2, ptr %7, align 8
  store i32 %3, ptr %8, align 4
  %10 = load ptr, ptr %5, align 8
  %11 = call i32 @Abc_NtkToSop(ptr noundef %10, i32 noundef -1, i32 noundef 1000000000)
  %12 = load ptr, ptr %5, align 8
  %13 = call ptr @Abc_NtkToNetlist(ptr noundef %12)
  store ptr %13, ptr %9, align 8
  %14 = load ptr, ptr %9, align 8
  %15 = icmp eq ptr %14, null
  br i1 %15, label %16, label %19

16:                                               ; preds = %4
  %17 = load ptr, ptr @stdout, align 8
  %18 = call i32 (ptr, ptr, ...) @fprintf(ptr noundef %17, ptr noundef @.str) #7
  br label %35

19:                                               ; preds = %4
  %20 = load ptr, ptr %7, align 8
  %21 = icmp ne ptr %20, null
  br i1 %21, label %22, label %29

22:                                               ; preds = %19
  %23 = load i32, ptr %8, align 4
  %24 = icmp ne i32 %23, 0
  br i1 %24, label %25, label %29

25:                                               ; preds = %22
  %26 = load ptr, ptr %9, align 8
  %27 = load ptr, ptr %6, align 8
  %28 = load ptr, ptr %7, align 8
  call void @Io_WriteBlifInt(ptr noundef %26, ptr noundef %27, ptr noundef %28, i32 noundef 1)
  br label %33

29:                                               ; preds = %22, %19
  %30 = load ptr, ptr %9, align 8
  %31 = load ptr, ptr %6, align 8
  %32 = load ptr, ptr %7, align 8
  call void @Io_WriteBlifInt(ptr noundef %30, ptr noundef %31, ptr noundef %32, i32 noundef 0)
  br label %33

33:                                               ; preds = %29, %25
  %34 = load ptr, ptr %9, align 8
  call void @Abc_NtkDelete(ptr noundef %34)
  br label %35

35:                                               ; preds = %33, %16
  ret void
}