; Function Attrs: nounwind uwtable
define void @Io_WriteBlifSpecial(ptr noundef %0, ptr noundef readonly captures(none) %1, ptr noundef %2, i32 noundef %3) local_unnamed_addr #0 {
  %5 = tail call i32 @Abc_NtkToSop(ptr noundef %0, i32 noundef -1, i32 noundef 1000000000) #10
  %6 = tail call ptr @Abc_NtkToNetlist(ptr noundef %0) #10
  %7 = icmp eq ptr %6, null
  br i1 %7, label %8, label %11

8:                                                ; preds = %4
  %9 = load ptr, ptr @stdout, align 8
  %10 = tail call i64 @fwrite(ptr nonnull @.str, i64 25, i64 1, ptr %9)
  br label %14

11:                                               ; preds = %4
  %12 = icmp ne ptr %2, null
  %13 = icmp ne i32 %3, 0
  %or.cond = and i1 %12, %13
  %. = zext i1 %or.cond to i32
  tail call void @Io_WriteBlifInt(ptr noundef nonnull %6, ptr noundef %1, ptr noundef %2, i32 noundef %.)
  tail call void @Abc_NtkDelete(ptr noundef nonnull %6) #10
  br label %14

14:                                               ; preds = %11, %8
  ret void
}